target datalayout = "e-m:e-p270:32:32-p271:32:32-p272:64:64-i64:64-i128:128-f80:128-n8:16:32:64-S128"
target triple = "x86_64-pc-linux-gnu"

%struct._dcerpc_info = type { ptr, i32, i64, i8, i32, i32, i32, i32, i32, i32, i32, i32, i32, i32, ptr, ptr, ptr }

@hf_level = internal global i32 0, align 4
@hf_offered = internal global i32 0, align 4
@hf_servername = internal global i32 0, align 4
@hf_environment = internal global i32 0, align 4
@.str.387 = private unnamed_addr constant [5 x i8] c"Name\00", align 1
@.str.435 = private unnamed_addr constant [7 x i8] c"Buffer\00", align 1
@.str.1217 = private unnamed_addr constant [12 x i8] c"Environment\00", align 1

; Function Attrs: nounwind uwtable
define internal i32 @dissect_spoolss_buffer(ptr noundef %0, i32 noundef %1, ptr noundef %2, ptr noundef %3, ptr noundef %4, ptr noundef %5, ptr noundef %6) #0 {
  %8 = alloca ptr, align 8
  %9 = alloca i32, align 4
  %10 = alloca ptr, align 8
  %11 = alloca ptr, align 8
  %12 = alloca ptr, align 8
  %13 = alloca ptr, align 8
  %14 = alloca ptr, align 8
  store ptr %0, ptr %8, align 8
  store i32 %1, ptr %9, align 4
  store ptr %2, ptr %10, align 8
  store ptr %3, ptr %11, align 8
  store ptr %4, ptr %12, align 8
  store ptr %5, ptr %13, align 8
  store ptr %6, ptr %14, align 8
  %15 = load ptr, ptr %14, align 8
  %16 = icmp ne ptr %15, null
  br i1 %16, label %17, label %19

17:                                               ; preds = %7
  %18 = load ptr, ptr %14, align 8
  call void @llvm.memset.p0.i64(ptr align 8 %18, i8 0, i64 24, i1 false)
  br label %19

19:                                               ; preds = %17, %7
  %20 = load ptr, ptr %14, align 8
  %21 = load ptr, ptr %12, align 8
  %22 = getelementptr inbounds %struct._dcerpc_info, ptr %21, i32 0, i32 16
  store ptr %20, ptr %22, align 8
  %23 = load ptr, ptr %8, align 8
  %24 = load i32, ptr %9, align 4
  %25 = load ptr, ptr %10, align 8
  %26 = load ptr, ptr %11, align 8
  %27 = load ptr, ptr %12, align 8
  %28 = load ptr, ptr %13, align 8
  %29 = call i32 @dissect_ndr_pointer(ptr noundef %23, i32 noundef %24, ptr noundef %25, ptr noundef %26, ptr noundef %27, ptr noundef %28, ptr noundef @dissect_spoolss_buffer_data, i32 noundef 2, ptr noundef @.str.435, i32 noundef -1)
  store i32 %29, ptr %9, align 4
  %30 = load i32, ptr %9, align 4
  ret i32 %30
}

; Function Attrs: nounwind uwtable
define internal i32 @SpoolssGetPrinterDriverDirectory_q(ptr noundef %0, i32 noundef %1, ptr noundef %2, ptr noundef %3, ptr noundef %4, ptr noundef %5) #0 {
  %7 = alloca ptr, align 8
  %8 = alloca i32, align 4
  %9 = alloca ptr, align 8
  %10 = alloca ptr, align 8
  %11 = alloca ptr, align 8
  %12 = alloca ptr, align 8
  %13 = alloca i32, align 4
  store ptr %0, ptr %7, align 8
  store i32 %1, ptr %8, align 4
  store ptr %2, ptr %9, align 8
  store ptr %3, ptr %10, align 8
  store ptr %4, ptr %11, align 8
  store ptr %5, ptr %12, align 8
  %14 = load ptr, ptr %7, align 8
  %15 = load i32, ptr %8, align 4
  %16 = load ptr, ptr %9, align 8
  %17 = load ptr, ptr %10, align 8
  %18 = load ptr, ptr %11, align 8
  %19 = load ptr, ptr %12, align 8
  %20 = load i32, ptr @hf_servername, align 4
  %21 = call i32 @dissect_ndr_str_pointer_item(ptr noundef %14, i32 noundef %15, ptr noundef %16, ptr noundef %17, ptr noundef %18, ptr noundef %19, i32 noundef 2, ptr noundef @.str.387, i32 noundef %20, i32 noundef 0)
  store i32 %21, ptr %8, align 4
  %22 = load ptr, ptr %7, align 8
  %23 = load i32, ptr %8, align 4
  %24 = load ptr, ptr %9, align 8
  %25 = load ptr, ptr %10, align 8
  %26 = load ptr, ptr %11, align 8
  %27 = load ptr, ptr %12, align 8
  %28 = load i32, ptr @hf_environment, align 4
  %29 = call i32 @dissect_ndr_str_pointer_item(ptr noundef %22, i32 noundef %23, ptr noundef %24, ptr noundef %25, ptr noundef %26, ptr noundef %27, i32 noundef 2, ptr noundef @.str.1217, i32 noundef %28, i32 noundef 0)
  store i32 %29, ptr %8, align 4
  %30 = load ptr, ptr %7, align 8
  %31 = load i32, ptr %8, align 4
  %32 = load ptr, ptr %9, align 8
  %33 = load ptr, ptr %10, align 8
  %34 = load ptr, ptr %11, align 8
  %35 = load ptr, ptr %12, align 8
  %36 = load i32, ptr @hf_level, align 4
  %37 = call i32 @dissect_ndr_uint32(ptr noundef %30, i32 noundef %31, ptr noundef %32, ptr noundef %33, ptr noundef %34, ptr noundef %35, i32 noundef %36, ptr noundef %13)
  store i32 %37, ptr %8, align 4
  %38 = load ptr, ptr %7, align 8
  %39 = load i32, ptr %8, align 4
  %40 = load ptr, ptr %9, align 8
  %41 = load ptr, ptr %10, align 8
  %42 = load ptr, ptr %11, align 8
  %43 = load ptr, ptr %12, align 8
  %44 = call i32 @dissect_spoolss_buffer(ptr noundef %38, i32 noundef %39, ptr noundef %40, ptr noundef %41, ptr noundef %42, ptr noundef %43, ptr noundef null)
  store i32 %44, ptr %8, align 4
  %45 = load ptr, ptr %7, align 8
  %46 = load i32, ptr %8, align 4
  %47 = load ptr, ptr %9, align 8
  %48 = load ptr, ptr %10, align 8
  %49 = load ptr, ptr %11, align 8
  %50 = load ptr, ptr %12, align 8
  %51 = load i32, ptr @hf_offered, align 4
  %52 = call i32 @dissect_ndr_uint32(ptr noundef %45, i32 noundef %46, ptr noundef %47, ptr noundef %48, ptr noundef %49, ptr noundef %50, i32 noundef %51, ptr noundef null)
  store i32 %52, ptr %8, align 4
  %53 = load i32, ptr %8, align 4
  ret i32 %53
}